target datalayout = "e-m:e-p270:32:32-p271:32:32-p272:64:64-i64:64-i128:128-f80:128-n8:16:32:64-S128"
target triple = "x86_64-pc-linux-gnu"

%struct.nameData = type { [64 x i8] }
%struct.RelationData = type { %struct.RelFileLocator, ptr, i32, i32, i8, i8, i8, i8, i8, i32, i32, i32, i32, ptr, ptr, i32, %struct.LockInfoData, ptr, ptr, ptr, ptr, ptr, i8, ptr, ptr, ptr, ptr, ptr, ptr, i32, ptr, i8, ptr, ptr, i32, i8, i32, ptr, i8, ptr, ptr, ptr, ptr, ptr, ptr, ptr, i32, ptr, ptr, ptr, ptr, ptr, ptr, ptr, ptr, ptr, ptr, ptr, ptr, ptr, ptr, ptr, ptr, ptr, ptr, ptr, i32, i8, ptr }
%struct.RelFileLocator = type { i32, i32, i32 }
%struct.LockInfoData = type { %struct.LockRelId }
%struct.LockRelId = type { i32, i32 }
%struct.FormData_pg_class = type { i32, %struct.nameData, i32, i32, i32, i32, i32, i32, i32, i32, float, i32, i32, i8, i8, i8, i8, i16, i16, i8, i8, i8, i8, i8, i8, i8, i8, i32, i32, i32 }
%struct.relidcacheent = type { i32, ptr }
%struct.HASH_SEQ_STATUS = type { ptr, i32, ptr, i8, i32 }

@.str.1 = private unnamed_addr constant [11 x i8] c"relcache.c\00", align 1
@RelationIdCache = internal global ptr null, align 8
@in_progress_list_len = internal global i32 0, align 4
@eoxact_list_overflowed = internal global i8 0, align 1
@eoxact_list_len = internal global i32 0, align 4
@eoxact_list = internal global [32 x i32] zeroinitializer, align 16
@EOXactTupleDescArrayLen = internal global i32 0, align 4
@NextEOXactTupleDescNum = internal global i32 0, align 4
@EOXactTupleDescArray = internal global ptr null, align 8
@.str.64 = private unnamed_addr constant [70 x i8] c"cannot remove relcache entry for \22%s\22 because it has nonzero refcount\00", align 1
@__func__.AtEOXact_cleanup = private unnamed_addr constant [17 x i8] c"AtEOXact_cleanup\00", align 1

; Function Attrs: nounwind uwtable
define internal void @AtEOXact_cleanup(ptr noundef %0, i1 noundef zeroext %1) #0 {
  %3 = alloca ptr, align 8
  %4 = alloca i8, align 1
  %5 = alloca i8, align 1
  %6 = alloca i32, align 4
  store ptr %0, ptr %3, align 8
  %7 = zext i1 %1 to i8
  store i8 %7, ptr %4, align 1
  call void @llvm.lifetime.start.p0(i64 1, ptr %5) #11
  store i8 0, ptr %5, align 1
  %8 = load i8, ptr %4, align 1, !range !4, !noundef !5
  %9 = trunc i8 %8 to i1
  br i1 %9, label %10, label %16

10:                                               ; preds = %2
  %11 = load ptr, ptr %3, align 8
  %12 = getelementptr inbounds nuw %struct.RelationData, ptr %11, i32 0, i32 12
  %13 = load i32, ptr %12, align 4
  %14 = icmp ne i32 %13, 0
  %15 = zext i1 %14 to i32
  br label %22

16:                                               ; preds = %2
  %17 = load ptr, ptr %3, align 8
  %18 = getelementptr inbounds nuw %struct.RelationData, ptr %17, i32 0, i32 9
  %19 = load i32, ptr %18, align 8
  %20 = icmp ne i32 %19, 0
  %21 = zext i1 %20 to i32
  br label %22

22:                                               ; preds = %16, %10
  %23 = phi i32 [ %15, %10 ], [ %21, %16 ]
  %24 = icmp ne i32 %23, 0
  %25 = zext i1 %24 to i8
  store i8 %25, ptr %5, align 1
  %26 = load ptr, ptr %3, align 8
  %27 = getelementptr inbounds nuw %struct.RelationData, ptr %26, i32 0, i32 9
  store i32 0, ptr %27, align 8
  %28 = load ptr, ptr %3, align 8
  %29 = getelementptr inbounds nuw %struct.RelationData, ptr %28, i32 0, i32 10
  store i32 0, ptr %29, align 4
  %30 = load ptr, ptr %3, align 8
  %31 = getelementptr inbounds nuw %struct.RelationData, ptr %30, i32 0, i32 11
  store i32 0, ptr %31, align 8
  %32 = load ptr, ptr %3, align 8
  %33 = getelementptr inbounds nuw %struct.RelationData, ptr %32, i32 0, i32 12
  store i32 0, ptr %33, align 4
  %34 = load i8, ptr %5, align 1, !range !4, !noundef !5
  %35 = trunc i8 %34 to i1
  br i1 %35, label %36, label %61

36:                                               ; preds = %22
  %37 = load ptr, ptr %3, align 8
  %38 = getelementptr inbounds nuw %struct.RelationData, ptr %37, i32 0, i32 2
  %39 = load i32, ptr %38, align 8
  %40 = icmp eq i32 %39, 0
  br i1 %40, label %41, label %43

41:                                               ; preds = %36
  %42 = load ptr, ptr %3, align 8
  call void @RelationClearRelation(ptr noundef %42)
  store i32 1, ptr %6, align 4
  br label %62

43:                                               ; preds = %36
  br label %44

44:                                               ; preds = %43
  br i1 false, label %45, label %47

45:                                               ; preds = %44
  %46 = call zeroext i1 @errstart_cold(i32 noundef 19, ptr noundef null) #12
  br i1 %46, label %49, label %57

47:                                               ; preds = %44
  %48 = call zeroext i1 @errstart(i32 noundef 19, ptr noundef null)
  br i1 %48, label %49, label %57

49:                                               ; preds = %47, %45
  %50 = load ptr, ptr %3, align 8
  %51 = getelementptr inbounds nuw %struct.RelationData, ptr %50, i32 0, i32 13
  %52 = load ptr, ptr %51, align 8
  %53 = getelementptr inbounds nuw %struct.FormData_pg_class, ptr %52, i32 0, i32 1
  %54 = getelementptr inbounds nuw %struct.nameData, ptr %53, i32 0, i32 0
  %55 = getelementptr inbounds [64 x i8], ptr %54, i64 0, i64 0
  %56 = call i32 (ptr, ...) @errmsg_internal(ptr noundef @.str.64, ptr noundef %55)
  call void @errfinish(ptr noundef @.str.1, i32 noundef 3321, ptr noundef @__func__.AtEOXact_cleanup)
  br label %57

57:                                               ; preds = %49, %47, %45
  br label %58

58:                                               ; preds = %57
  br label %59

59:                                               ; preds = %58
  br label %60

60:                                               ; preds = %59
  br label %61

61:                                               ; preds = %60, %22
  store i32 0, ptr %6, align 4
  br label %62

62:                                               ; preds = %61, %41
  call void @llvm.lifetime.end.p0(i64 1, ptr %5) #11
  %63 = load i32, ptr %6, align 4
  switch i32 %63, label %65 [
    i32 0, label %64
    i32 1, label %64
  ]

64:                                               ; preds = %62, %62
  ret void

65:                                               ; preds = %62
  unreachable
}

; Function Attrs: nounwind uwtable
define dso_local void @AtEOXact_RelationCache(i1 noundef zeroext %0) #0 {
  %2 = alloca i8, align 1
  %3 = alloca %struct.HASH_SEQ_STATUS, align 8
  %4 = alloca ptr, align 8
  %5 = alloca i32, align 4
  %6 = zext i1 %0 to i8
  store i8 %6, ptr %2, align 1
  call void @llvm.lifetime.start.p0(i64 32, ptr %3) #11
  call void @llvm.lifetime.start.p0(i64 8, ptr %4) #11
  call void @llvm.lifetime.start.p0(i64 4, ptr %5) #11
  store i32 0, ptr @in_progress_list_len, align 4
  %7 = load i8, ptr @eoxact_list_overflowed, align 1, !range !4, !noundef !5
  %8 = trunc i8 %7 to i1
  br i1 %8, label %9, label %21

9:                                                ; preds = %1
  %10 = load ptr, ptr @RelationIdCache, align 8
  call void @hash_seq_init(ptr noundef %3, ptr noundef %10)
  br label %11

11:                                               ; preds = %14, %9
  %12 = call ptr @hash_seq_search(ptr noundef %3)
  store ptr %12, ptr %4, align 8
  %13 = icmp ne ptr %12, null
  br i1 %13, label %14, label %20

14:                                               ; preds = %11
  %15 = load ptr, ptr %4, align 8
  %16 = getelementptr inbounds nuw %struct.relidcacheent, ptr %15, i32 0, i32 1
  %17 = load ptr, ptr %16, align 8
  %18 = load i8, ptr %2, align 1, !range !4, !noundef !5
  %19 = trunc i8 %18 to i1
  call void @AtEOXact_cleanup(ptr noundef %17, i1 noundef zeroext %19)
  br label %11, !llvm.loop !15

20:                                               ; preds = %11
  br label %45

21:                                               ; preds = %1
  store i32 0, ptr %5, align 4
  br label %22

22:                                               ; preds = %41, %21
  %23 = load i32, ptr %5, align 4
  %24 = load i32, ptr @eoxact_list_len, align 4
  %25 = icmp slt i32 %23, %24
  br i1 %25, label %26, label %44

26:                                               ; preds = %22
  %27 = load ptr, ptr @RelationIdCache, align 8
  %28 = load i32, ptr %5, align 4
  %29 = sext i32 %28 to i64
  %30 = getelementptr inbounds [32 x i32], ptr @eoxact_list, i64 0, i64 %29
  %31 = call ptr @hash_search(ptr noundef %27, ptr noundef %30, i32 noundef 0, ptr noundef null)
  store ptr %31, ptr %4, align 8
  %32 = load ptr, ptr %4, align 8
  %33 = icmp ne ptr %32, null
  br i1 %33, label %34, label %40

34:                                               ; preds = %26
  %35 = load ptr, ptr %4, align 8
  %36 = getelementptr inbounds nuw %struct.relidcacheent, ptr %35, i32 0, i32 1
  %37 = load ptr, ptr %36, align 8
  %38 = load i8, ptr %2, align 1, !range !4, !noundef !5
  %39 = trunc i8 %38 to i1
  call void @AtEOXact_cleanup(ptr noundef %37, i1 noundef zeroext %39)
  br label %40

40:                                               ; preds = %34, %26
  br label %41

41:                                               ; preds = %40
  %42 = load i32, ptr %5, align 4
  %43 = add i32 %42, 1
  store i32 %43, ptr %5, align 4
  br label %22, !llvm.loop !16

44:                                               ; preds = %22
  br label %45

45:                                               ; preds = %44, %20
  %46 = load i32, ptr @EOXactTupleDescArrayLen, align 4
  %47 = icmp sgt i32 %46, 0
  br i1 %47, label %48, label %64

48:                                               ; preds = %45
  store i32 0, ptr %5, align 4
  br label %49

49:                                               ; preds = %59, %48
  %50 = load i32, ptr %5, align 4
  %51 = load i32, ptr @NextEOXactTupleDescNum, align 4
  %52 = icmp slt i32 %50, %51
  br i1 %52, label %53, label %62

53:                                               ; preds = %49
  %54 = load ptr, ptr @EOXactTupleDescArray, align 8
  %55 = load i32, ptr %5, align 4
  %56 = sext i32 %55 to i64
  %57 = getelementptr inbounds ptr, ptr %54, i64 %56
  %58 = load ptr, ptr %57, align 8
  call void @FreeTupleDesc(ptr noundef %58)
  br label %59

59:                                               ; preds = %53
  %60 = load i32, ptr %5, align 4
  %61 = add i32 %60, 1
  store i32 %61, ptr %5, align 4
  br label %49, !llvm.loop !17

62:                                               ; preds = %49
  %63 = load ptr, ptr @EOXactTupleDescArray, align 8
  call void @pfree(ptr noundef %63)
  store ptr null, ptr @EOXactTupleDescArray, align 8
  br label %64

64:                                               ; preds = %62, %45
  store i32 0, ptr @eoxact_list_len, align 4
  store i8 0, ptr @eoxact_list_overflowed, align 1
  store i32 0, ptr @NextEOXactTupleDescNum, align 4
  store i32 0, ptr @EOXactTupleDescArrayLen, align 4
  call void @llvm.lifetime.end.p0(i64 4, ptr %5) #11
  call void @llvm.lifetime.end.p0(i64 8, ptr %4) #11
  call void @llvm.lifetime.end.p0(i64 32, ptr %3) #11
  ret void
}